; Function Attrs: nounwind uwtable
define i32 @Dar_LibEvalBuild(ptr noundef %0, ptr noundef readonly captures(none) %1, i32 noundef %2, i32 noundef %3, ptr noundef captures(none) %4) local_unnamed_addr #0 {
  %6 = alloca i32, align 4
  %7 = tail call i32 @Dar2_LibEval(ptr noundef %0, ptr noundef %1, i32 noundef %2, i32 noundef %3, ptr noundef %4)
  call void @llvm.lifetime.start.p0(i64 4, ptr nonnull %6)
  store i32 4, ptr %6, align 4
  %8 = getelementptr i8, ptr %4, i64 4
  %.val1012.i = load i32, ptr %8, align 4
  %9 = icmp sgt i32 %.val1012.i, 0
  %.pre.i = load ptr, ptr @s_DarLib, align 8
  br i1 %9, label %.lr.ph.i, label %Dar2_LibBuildBest.exit

.lr.ph.i:                                         ; preds = %5
  %10 = getelementptr i8, ptr %4, i64 8
  %11 = getelementptr inbounds nuw i8, ptr %.pre.i, i64 16096
  br label %12

12:                                               ; preds = %12, %.lr.ph.i
  %indvars.iv.i = phi i64 [ 0, %.lr.ph.i ], [ %indvars.iv.next.i, %12 ]
  %.val11.i = load ptr, ptr %10, align 8
  %13 = getelementptr inbounds nuw i32, ptr %.val11.i, i64 %indvars.iv.i
  %14 = load i32, ptr %13, align 4
  %15 = load ptr, ptr %11, align 8
  %16 = getelementptr inbounds nuw %struct.Dar_LibDat_t_, ptr %15, i64 %indvars.iv.i
  store i32 %14, ptr %16, align 8
  %indvars.iv.next.i = add nuw nsw i64 %indvars.iv.i, 1
  %.val10.i = load i32, ptr %8, align 4
  %17 = sext i32 %.val10.i to i64
  %18 = icmp slt i64 %indvars.iv.next.i, %17
  br i1 %18, label %12, label %Dar2_LibBuildBest.exit, !llvm.loop !46

Dar2_LibBuildBest.exit:                           ; preds = %12, %5
  %.val9.i = load ptr, ptr %.pre.i, align 8
  %19 = sext i32 %7 to i64
  %20 = getelementptr inbounds %struct.Dar_LibObj_t_, ptr %.val9.i, i64 %19
  call void @Dar2_LibBuildClear_rec(ptr noundef %20, ptr noundef nonnull %6)
  %.val.i = load ptr, ptr %.pre.i, align 8
  %21 = getelementptr inbounds %struct.Dar_LibObj_t_, ptr %.val.i, i64 %19
  %22 = tail call i32 @Dar2_LibBuildBest_rec(ptr noundef %0, ptr noundef %21)
  call void @llvm.lifetime.end.p0(i64 4, ptr nonnull %6)
  ret i32 %22
}